target datalayout = "e-m:e-p270:32:32-p271:32:32-p272:64:64-i64:64-i128:128-f80:128-n8:16:32:64-S128"
target triple = "x86_64-pc-linux-gnu"

%"struct.OpenImageIO::v3_1_0::TypeDesc" = type { i8, i8, i8, i8, i32 }
%"class.OpenImageIO::v3_1_0::DPXOutput" = type { %"class.OpenImageIO::v3_1_0::ImageOutput", ptr, %"class.dpx::Writer", %"class.std::vector.12", %"class.std::vector.12", i32, i32, i32, i32, i32, i32, i8, i8, i64, i32, i32, %"class.std::vector.17", i8, i32, %"class.std::vector.12" }
%"class.OpenImageIO::v3_1_0::ImageOutput" = type { ptr, %"class.OpenImageIO::v3_1_0::ImageSpec", %"class.std::unique_ptr" }
%"class.OpenImageIO::v3_1_0::ImageSpec" = type { i32, i32, i32, i32, i32, i32, i32, i32, i32, i32, i32, i32, i32, i32, i32, i32, %"struct.OpenImageIO::v3_1_0::TypeDesc", %"class.std::vector", %"class.std::vector.0", i32, i32, i8, %"class.OpenImageIO::v3_1_0::ParamValueList" }
%"class.std::vector" = type { %"struct.std::_Vector_base" }
%"struct.std::_Vector_base" = type { %"struct.std::_Vector_base<OpenImageIO::v3_1_0::TypeDesc, std::allocator<OpenImageIO::v3_1_0::TypeDesc>>::_Vector_impl" }
%"struct.std::_Vector_base<OpenImageIO::v3_1_0::TypeDesc, std::allocator<OpenImageIO::v3_1_0::TypeDesc>>::_Vector_impl" = type { %"struct.std::_Vector_base<OpenImageIO::v3_1_0::TypeDesc, std::allocator<OpenImageIO::v3_1_0::TypeDesc>>::_Vector_impl_data" }
%"struct.std::_Vector_base<OpenImageIO::v3_1_0::TypeDesc, std::allocator<OpenImageIO::v3_1_0::TypeDesc>>::_Vector_impl_data" = type { ptr, ptr, ptr }
%"class.std::vector.0" = type { %"struct.std::_Vector_base.1" }
%"struct.std::_Vector_base.1" = type { %"struct.std::_Vector_base<std::__cxx11::basic_string<char>, std::allocator<std::__cxx11::basic_string<char>>>::_Vector_impl" }
%"struct.std::_Vector_base<std::__cxx11::basic_string<char>, std::allocator<std::__cxx11::basic_string<char>>>::_Vector_impl" = type { %"struct.std::_Vector_base<std::__cxx11::basic_string<char>, std::allocator<std::__cxx11::basic_string<char>>>::_Vector_impl_data" }
%"struct.std::_Vector_base<std::__cxx11::basic_string<char>, std::allocator<std::__cxx11::basic_string<char>>>::_Vector_impl_data" = type { ptr, ptr, ptr }
%"class.OpenImageIO::v3_1_0::ParamValueList" = type { %"class.std::vector.5" }
%"class.std::vector.5" = type { %"struct.std::_Vector_base.6" }
%"struct.std::_Vector_base.6" = type { %"struct.std::_Vector_base<OpenImageIO::v3_1_0::ParamValue, std::allocator<OpenImageIO::v3_1_0::ParamValue>>::_Vector_impl" }
%"struct.std::_Vector_base<OpenImageIO::v3_1_0::ParamValue, std::allocator<OpenImageIO::v3_1_0::ParamValue>>::_Vector_impl" = type { %"struct.std::_Vector_base<OpenImageIO::v3_1_0::ParamValue, std::allocator<OpenImageIO::v3_1_0::ParamValue>>::_Vector_impl_data" }
%"struct.std::_Vector_base<OpenImageIO::v3_1_0::ParamValue, std::allocator<OpenImageIO::v3_1_0::ParamValue>>::_Vector_impl_data" = type { ptr, ptr, ptr }
%"class.std::unique_ptr" = type { %"struct.std::__uniq_ptr_data" }
%"struct.std::__uniq_ptr_data" = type { %"class.std::__uniq_ptr_impl" }
%"class.std::__uniq_ptr_impl" = type { %"class.std::tuple" }
%"class.std::tuple" = type { %"struct.std::_Tuple_impl" }
%"struct.std::_Tuple_impl" = type { %"struct.std::_Tuple_impl.10", %"struct.std::_Head_base.11" }
%"struct.std::_Tuple_impl.10" = type { %"struct.std::_Head_base" }
%"struct.std::_Head_base" = type { ptr }
%"struct.std::_Head_base.11" = type { ptr }
%"class.dpx::Writer" = type { ptr, %"struct.dpx::Header", i64, ptr }
%"struct.dpx::Header" = type <{ %"struct.dpx::GenericHeader", %"struct.dpx::IndustryHeader", i8, [3 x i8] }>
%"struct.dpx::GenericHeader" = type { i32, i32, [8 x i8], i32, i32, i32, i32, i32, [100 x i8], [24 x i8], [100 x i8], [200 x i8], [200 x i8], i32, [104 x i8], i16, i16, i32, i32, [8 x %"struct.dpx::ImageElement"], [52 x i8], i32, i32, float, float, i32, i32, [100 x i8], [24 x i8], [32 x i8], [32 x i8], [4 x i16], [2 x i32], float, float, [20 x i8] }
%"struct.dpx::ImageElement" = type { i32, i32, float, i32, float, i8, i8, i8, i8, i16, i16, i32, i32, i32, [32 x i8] }
%"struct.dpx::IndustryHeader" = type { [2 x i8], [2 x i8], [2 x i8], [6 x i8], [4 x i8], [32 x i8], i32, i32, i32, float, float, [32 x i8], [100 x i8], [56 x i8], i32, i32, i8, i8, i8, i8, float, float, float, float, float, float, float, float, float, float, [76 x i8] }
%"class.std::vector.17" = type { %"struct.std::_Vector_base.18" }
%"struct.std::_Vector_base.18" = type { %"struct.std::_Vector_base<OpenImageIO::v3_1_0::ImageSpec, std::allocator<OpenImageIO::v3_1_0::ImageSpec>>::_Vector_impl" }
%"struct.std::_Vector_base<OpenImageIO::v3_1_0::ImageSpec, std::allocator<OpenImageIO::v3_1_0::ImageSpec>>::_Vector_impl" = type { %"struct.std::_Vector_base<OpenImageIO::v3_1_0::ImageSpec, std::allocator<OpenImageIO::v3_1_0::ImageSpec>>::_Vector_impl_data" }
%"struct.std::_Vector_base<OpenImageIO::v3_1_0::ImageSpec, std::allocator<OpenImageIO::v3_1_0::ImageSpec>>::_Vector_impl_data" = type { ptr, ptr, ptr }
%"class.std::vector.12" = type { %"struct.std::_Vector_base.13" }
%"struct.std::_Vector_base.13" = type { %"struct.std::_Vector_base<unsigned char, std::allocator<unsigned char>>::_Vector_impl" }
%"struct.std::_Vector_base<unsigned char, std::allocator<unsigned char>>::_Vector_impl" = type { %"struct.std::_Vector_base<unsigned char, std::allocator<unsigned char>>::_Vector_impl_data" }
%"struct.std::_Vector_base<unsigned char, std::allocator<unsigned char>>::_Vector_impl_data" = type { ptr, ptr, ptr }

@.str.79 = private unnamed_addr constant [40 x i8] c"write_tile called but file is not open.\00", align 1

; Function Attrs: mustprogress nounwind uwtable
define linkonce_odr void @_ZN11OpenImageIO6v3_1_08TypeDescC2ENS1_8BASETYPEENS1_9AGGREGATEENS1_12VECSEMANTICSEi(ptr noundef nonnull align 4 dereferenceable(8) %0, i32 noundef %1, i32 noundef %2, i32 noundef %3, i32 noundef %4) unnamed_addr #7 comdat align 2 {
  %6 = alloca ptr, align 8
  %7 = alloca i32, align 4
  %8 = alloca i32, align 4
  %9 = alloca i32, align 4
  %10 = alloca i32, align 4
  store ptr %0, ptr %6, align 8, !tbaa !154
  store i32 %1, ptr %7, align 4, !tbaa !155
  store i32 %2, ptr %8, align 4, !tbaa !194
  store i32 %3, ptr %9, align 4, !tbaa !196
  store i32 %4, ptr %10, align 4, !tbaa !84
  %11 = load ptr, ptr %6, align 8
  %12 = getelementptr inbounds nuw %"struct.OpenImageIO::v3_1_0::TypeDesc", ptr %11, i32 0, i32 0
  %13 = load i32, ptr %7, align 4, !tbaa !155
  %14 = trunc i32 %13 to i8
  store i8 %14, ptr %12, align 4, !tbaa !157
  %15 = getelementptr inbounds nuw %"struct.OpenImageIO::v3_1_0::TypeDesc", ptr %11, i32 0, i32 1
  %16 = load i32, ptr %8, align 4, !tbaa !194
  %17 = trunc i32 %16 to i8
  store i8 %17, ptr %15, align 1, !tbaa !158
  %18 = getelementptr inbounds nuw %"struct.OpenImageIO::v3_1_0::TypeDesc", ptr %11, i32 0, i32 2
  %19 = load i32, ptr %9, align 4, !tbaa !196
  %20 = trunc i32 %19 to i8
  store i8 %20, ptr %18, align 2, !tbaa !198
  %21 = getelementptr inbounds nuw %"struct.OpenImageIO::v3_1_0::TypeDesc", ptr %11, i32 0, i32 3
  store i8 0, ptr %21, align 1, !tbaa !199
  %22 = getelementptr inbounds nuw %"struct.OpenImageIO::v3_1_0::TypeDesc", ptr %11, i32 0, i32 4
  %23 = load i32, ptr %10, align 4, !tbaa !84
  store i32 %23, ptr %22, align 4, !tbaa !200
  ret void
}

; Function Attrs: mustprogress nounwind uwtable
define linkonce_odr noundef nonnull align 1 dereferenceable(1) ptr @_ZNSt6vectorIhSaIhEEixEm(ptr noundef nonnull align 8 dereferenceable(24) %0, i64 noundef %1) #7 comdat align 2 {
  %3 = alloca ptr, align 8
  %4 = alloca i64, align 8
  store ptr %0, ptr %3, align 8, !tbaa !66
  store i64 %1, ptr %4, align 8, !tbaa !93
  %5 = load ptr, ptr %3, align 8
  %6 = getelementptr inbounds nuw %"struct.std::_Vector_base.13", ptr %5, i32 0, i32 0
  %7 = getelementptr inbounds nuw %"struct.std::_Vector_base<unsigned char, std::allocator<unsigned char>>::_Vector_impl_data", ptr %6, i32 0, i32 0
  %8 = load ptr, ptr %7, align 8, !tbaa !73
  %9 = load i64, ptr %4, align 8, !tbaa !93
  %10 = getelementptr inbounds nuw i8, ptr %8, i64 %9
  ret ptr %10
}

; Function Attrs: mustprogress nounwind uwtable
define linkonce_odr hidden noundef zeroext i1 @_ZNK11OpenImageIO6v3_1_09DPXOutput9is_openedEv(ptr noundef nonnull align 8 dereferenceable(2424) %0) #7 comdat align 2 {
  %2 = alloca ptr, align 8
  store ptr %0, ptr %2, align 8, !tbaa !8
  %3 = load ptr, ptr %2, align 8
  %4 = getelementptr inbounds nuw %"class.OpenImageIO::v3_1_0::DPXOutput", ptr %3, i32 0, i32 1
  %5 = load ptr, ptr %4, align 8, !tbaa !12
  %6 = icmp ne ptr %5, null
  ret i1 %6
}

; Function Attrs: mustprogress uwtable
define hidden noundef zeroext i1 @_ZN11OpenImageIO6v3_1_09DPXOutput10write_tileEiiiNS0_8TypeDescEPKvlll(ptr noundef nonnull align 8 dereferenceable(2424) %0, i32 noundef %1, i32 noundef %2, i32 noundef %3, i64 %4, ptr noundef %5, i64 noundef %6, i64 noundef %7, i64 noundef %8) unnamed_addr #6 align 2 {
  %10 = alloca i1, align 1
  %11 = alloca %"struct.OpenImageIO::v3_1_0::TypeDesc", align 4
  %12 = alloca ptr, align 8
  %13 = alloca i32, align 4
  %14 = alloca i32, align 4
  %15 = alloca i32, align 4
  %16 = alloca ptr, align 8
  %17 = alloca i64, align 8
  %18 = alloca i64, align 8
  %19 = alloca i64, align 8
  %20 = alloca %"struct.OpenImageIO::v3_1_0::TypeDesc", align 4
  %21 = alloca %"struct.OpenImageIO::v3_1_0::TypeDesc", align 4
  store i64 %4, ptr %11, align 4
  store ptr %0, ptr %12, align 8, !tbaa !8
  store i32 %1, ptr %13, align 4, !tbaa !84
  store i32 %2, ptr %14, align 4, !tbaa !84
  store i32 %3, ptr %15, align 4, !tbaa !84
  store ptr %5, ptr %16, align 8, !tbaa !207
  store i64 %6, ptr %17, align 8, !tbaa !93
  store i64 %7, ptr %18, align 8, !tbaa !93
  store i64 %8, ptr %19, align 8, !tbaa !93
  %22 = load ptr, ptr %12, align 8
  %23 = call noundef zeroext i1 @_ZNK11OpenImageIO6v3_1_09DPXOutput9is_openedEv(ptr noundef nonnull align 8 dereferenceable(2424) %22)
  br i1 %23, label %25, label %24

24:                                               ; preds = %9
  call void @_ZNK11OpenImageIO6v3_1_011ImageOutput8errorfmtIJEEEvPKcDpRKT_(ptr noundef nonnull align 8 dereferenceable(184) %22, ptr noundef @.str.79)
  store i1 false, ptr %10, align 1
  br label %38

25:                                               ; preds = %9
  %26 = load i32, ptr %13, align 4, !tbaa !84
  %27 = load i32, ptr %14, align 4, !tbaa !84
  %28 = load i32, ptr %15, align 4, !tbaa !84
  call void @llvm.memcpy.p0.p0.i64(ptr align 4 %20, ptr align 4 %11, i64 8, i1 false), !tbaa.struct !82
  %29 = load ptr, ptr %16, align 8, !tbaa !207
  %30 = load i64, ptr %17, align 8, !tbaa !93
  %31 = load i64, ptr %18, align 8, !tbaa !93
  %32 = load i64, ptr %19, align 8, !tbaa !93
  %33 = getelementptr inbounds nuw %"class.OpenImageIO::v3_1_0::DPXOutput", ptr %22, i32 0, i32 19
  %34 = call noundef nonnull align 1 dereferenceable(1) ptr @_ZNSt6vectorIhSaIhEEixEm(ptr noundef nonnull align 8 dereferenceable(24) %33, i64 noundef 0) #5
  call void @_ZN11OpenImageIO6v3_1_08TypeDescC2ENS1_8BASETYPEENS1_9AGGREGATEENS1_12VECSEMANTICSEi(ptr noundef nonnull align 4 dereferenceable(8) %21, i32 noundef 0, i32 noundef 1, i32 noundef 0, i32 noundef 0) #5
  %35 = load i64, ptr %20, align 4
  %36 = load i64, ptr %21, align 4
  %37 = call noundef zeroext i1 @_ZN11OpenImageIO6v3_1_011ImageOutput25copy_tile_to_image_bufferEiiiNS0_8TypeDescEPKvlllPvS2_(ptr noundef nonnull align 8 dereferenceable(184) %22, i32 noundef %26, i32 noundef %27, i32 noundef %28, i64 %35, ptr noundef %29, i64 noundef %30, i64 noundef %31, i64 noundef %32, ptr noundef %34, i64 %36)
  store i1 %37, ptr %10, align 1
  br label %38

38:                                               ; preds = %25, %24
  %39 = load i1, ptr %10, align 1
  ret i1 %39
}